; Function Attrs: mustprogress nofree norecurse nosync nounwind willreturn memory(read, inaccessiblemem: none) uwtable
define dso_local { ptr, ptr } @_ZN4Luau7CodeGen12predecessorsERKNS0_7CfgInfoEj(ptr nocapture noundef nonnull readonly align 8 dereferenceable(304) %0, i32 noundef %1) local_unnamed_addr #2 {
  %3 = getelementptr inbounds i8, ptr %0, i64 24
  %4 = zext i32 %1 to i64
  %5 = load ptr, ptr %3, align 8
  %6 = getelementptr inbounds i32, ptr %5, i64 %4
  %7 = load i32, ptr %6, align 4
  %8 = add i32 %1, 1
  %9 = zext i32 %8 to i64
  %10 = getelementptr inbounds i8, ptr %0, i64 32
  %11 = load ptr, ptr %10, align 8
  %12 = ptrtoint ptr %11 to i64
  %13 = ptrtoint ptr %5 to i64
  %14 = sub i64 %12, %13
  %15 = ashr exact i64 %14, 2
  %16 = icmp ugt i64 %15, %9
  %.pre = load ptr, ptr %0, align 8
  br i1 %16, label %17, label %20

17:                                               ; preds = %2
  %18 = getelementptr inbounds i32, ptr %5, i64 %9
  %19 = load i32, ptr %18, align 4
  br label %28

20:                                               ; preds = %2
  %21 = getelementptr inbounds i8, ptr %0, i64 8
  %22 = load ptr, ptr %21, align 8
  %23 = ptrtoint ptr %22 to i64
  %24 = ptrtoint ptr %.pre to i64
  %25 = sub i64 %23, %24
  %26 = lshr exact i64 %25, 2
  %27 = trunc i64 %26 to i32
  br label %28

28:                                               ; preds = %20, %17
  %29 = phi i32 [ %19, %17 ], [ %27, %20 ]
  %30 = zext i32 %7 to i64
  %31 = getelementptr inbounds i32, ptr %.pre, i64 %30
  %32 = zext i32 %29 to i64
  %33 = getelementptr inbounds i32, ptr %.pre, i64 %32
  %.fca.0.insert = insertvalue { ptr, ptr } poison, ptr %31, 0
  %.fca.1.insert = insertvalue { ptr, ptr } %.fca.0.insert, ptr %33, 1
  ret { ptr, ptr } %.fca.1.insert
}